target datalayout = "e-m:e-p270:32:32-p271:32:32-p272:64:64-i64:64-i128:128-f80:128-n8:16:32:64-S128"
target triple = "x86_64-pc-linux-gnu"

%struct._zend_refcounted_h = type { i32, %union.anon }
%union.anon = type { i32 }
%struct._zend_string = type { %struct._zend_refcounted_h, i64, i64, [1 x i8] }
%struct._zend_op_array = type { i8, [3 x i8], i32, ptr, ptr, ptr, i32, i32, ptr, ptr, ptr, ptr, i32, i32, i32, i32, ptr, ptr, ptr, ptr, ptr, i32, i32, ptr, ptr, ptr, i32, i32, i32, i32, ptr, ptr, [6 x ptr] }

@stderr = external global ptr, align 8
@.str.13 = private unnamed_addr constant [10 x i8] c"CV%d($%s)\00", align 1
@.str.14 = private unnamed_addr constant [4 x i8] c"V%d\00", align 1
@.str.15 = private unnamed_addr constant [4 x i8] c"T%d\00", align 1
@.str.16 = private unnamed_addr constant [4 x i8] c"X%d\00", align 1

; Function Attrs: nounwind uwtable
define void @zend_dump_var(ptr noundef %0, i8 noundef zeroext %1, i32 noundef %2) #0 {
  %4 = alloca ptr, align 8
  %5 = alloca i8, align 1
  %6 = alloca i32, align 4
  store ptr %0, ptr %4, align 8
  store i8 %1, ptr %5, align 1
  store i32 %2, ptr %6, align 4
  %7 = load i8, ptr %5, align 1
  %8 = zext i8 %7 to i32
  %9 = icmp eq i32 %8, 8
  br i1 %9, label %10, label %29

10:                                               ; preds = %3
  %11 = load i32, ptr %6, align 4
  %12 = load ptr, ptr %4, align 8
  %13 = getelementptr inbounds %struct._zend_op_array, ptr %12, i32 0, i32 14
  %14 = load i32, ptr %13, align 8
  %15 = icmp slt i32 %11, %14
  br i1 %15, label %16, label %29

16:                                               ; preds = %10
  %17 = load ptr, ptr @stderr, align 8
  %18 = load i32, ptr %6, align 4
  %19 = load ptr, ptr %4, align 8
  %20 = getelementptr inbounds %struct._zend_op_array, ptr %19, i32 0, i32 19
  %21 = load ptr, ptr %20, align 8
  %22 = load i32, ptr %6, align 4
  %23 = sext i32 %22 to i64
  %24 = getelementptr inbounds ptr, ptr %21, i64 %23
  %25 = load ptr, ptr %24, align 8
  %26 = getelementptr inbounds %struct._zend_string, ptr %25, i32 0, i32 3
  %27 = getelementptr inbounds [1 x i8], ptr %26, i64 0, i64 0
  %28 = call i32 (ptr, ptr, ...) @fprintf(ptr noundef %17, ptr noundef @.str.13, i32 noundef %18, ptr noundef %27) #4
  br label %52

29:                                               ; preds = %10, %3
  %30 = load i8, ptr %5, align 1
  %31 = zext i8 %30 to i32
  %32 = icmp eq i32 %31, 4
  br i1 %32, label %33, label %37

33:                                               ; preds = %29
  %34 = load ptr, ptr @stderr, align 8
  %35 = load i32, ptr %6, align 4
  %36 = call i32 (ptr, ptr, ...) @fprintf(ptr noundef %34, ptr noundef @.str.14, i32 noundef %35) #4
  br label %51

37:                                               ; preds = %29
  %38 = load i8, ptr %5, align 1
  %39 = zext i8 %38 to i32
  %40 = and i32 %39, 6
  %41 = icmp eq i32 %40, 2
  br i1 %41, label %42, label %46

42:                                               ; preds = %37
  %43 = load ptr, ptr @stderr, align 8
  %44 = load i32, ptr %6, align 4
  %45 = call i32 (ptr, ptr, ...) @fprintf(ptr noundef %43, ptr noundef @.str.15, i32 noundef %44) #4
  br label %50

46:                                               ; preds = %37
  %47 = load ptr, ptr @stderr, align 8
  %48 = load i32, ptr %6, align 4
  %49 = call i32 (ptr, ptr, ...) @fprintf(ptr noundef %47, ptr noundef @.str.16, i32 noundef %48) #4
  br label %50

50:                                               ; preds = %46, %42
  br label %51

51:                                               ; preds = %50, %33
  br label %52

52:                                               ; preds = %51, %16
  ret void
}