; Function Attrs: nofree nounwind uwtable
define void @zend_dump_var(ptr nocapture noundef readonly %0, i8 noundef zeroext %1, i32 noundef %2) local_unnamed_addr #3 {
  switch i8 %1, label %20 [
    i8 8, label %4
    i8 4, label %17
  ]

4:                                                ; preds = %3
  %5 = getelementptr inbounds i8, ptr %0, i64 80
  %6 = load i32, ptr %5, align 8
  %7 = icmp sgt i32 %6, %2
  br i1 %7, label %8, label %.thread

8:                                                ; preds = %4
  %9 = load ptr, ptr @stderr, align 8
  %10 = getelementptr inbounds i8, ptr %0, i64 112
  %11 = load ptr, ptr %10, align 8
  %12 = sext i32 %2 to i64
  %13 = getelementptr inbounds ptr, ptr %11, i64 %12
  %14 = load ptr, ptr %13, align 8
  %15 = getelementptr inbounds i8, ptr %14, i64 24
  %16 = tail call i32 (ptr, ptr, ...) @fprintf(ptr noundef %9, ptr noundef nonnull @.str.13, i32 noundef %2, ptr noundef nonnull %15) #8
  br label %28

17:                                               ; preds = %3
  %18 = load ptr, ptr @stderr, align 8
  %19 = tail call i32 (ptr, ptr, ...) @fprintf(ptr noundef %18, ptr noundef nonnull @.str.14, i32 noundef %2) #8
  br label %28

20:                                               ; preds = %3
  %21 = and i8 %1, 6
  %22 = icmp eq i8 %21, 2
  br i1 %22, label %23, label %.thread

23:                                               ; preds = %20
  %24 = load ptr, ptr @stderr, align 8
  %25 = tail call i32 (ptr, ptr, ...) @fprintf(ptr noundef %24, ptr noundef nonnull @.str.15, i32 noundef %2) #8
  br label %28

.thread:                                          ; preds = %4, %20
  %26 = load ptr, ptr @stderr, align 8
  %27 = tail call i32 (ptr, ptr, ...) @fprintf(ptr noundef %26, ptr noundef nonnull @.str.16, i32 noundef %2) #8
  br label %28

28:                                               ; preds = %17, %.thread, %23, %8
  ret void
}